; Function Attrs: nounwind uwtable
define internal fastcc void @ir_emit_jmp_true(ptr noundef %0, i32 noundef %1) unnamed_addr #1 {
  %3 = alloca i32, align 4
  %4 = alloca i32, align 4
  %5 = alloca i32, align 4
  %6 = getelementptr inbounds i8, ptr %0, i64 248
  %7 = load ptr, ptr %6, align 8
  call void @ir_get_true_false_blocks(ptr noundef %0, i32 noundef %1, ptr noundef nonnull %3, ptr noundef nonnull %4, ptr noundef nonnull %5) #22
  %8 = load i32, ptr %3, align 4
  %9 = load i32, ptr %5, align 4
  %.not = icmp eq i32 %8, %9
  br i1 %.not, label %12, label %10

10:                                               ; preds = %2
  %11 = getelementptr inbounds i8, ptr %7, i64 32
  call void (ptr, i32, ...) @dasm_put(ptr noundef nonnull %11, i32 noundef 4868, i32 noundef %8)
  br label %12

12:                                               ; preds = %10, %2
  ret void
}